; ModuleID = '17/1150.c'
source_filename = "17/1150.c"
target datalayout = "e-m:e-p270:32:32-p271:32:32-p272:64:64-i64:64-f80:128-n8:16:32:64-S128"
target triple = "x86_64-pc-linux-gnu"

@.str = private unnamed_addr constant [3 x i8] c"%s\00", align 1
@input = common dso_local global [128 x i8] zeroinitializer, align 16
@tmp_input = common dso_local global [128 x i8] zeroinitializer, align 16
@.str.1 = private unnamed_addr constant [4 x i8] c"%s\0A\00", align 1

; Function Attrs: noinline nounwind uwtable
define dso_local i32 @main() #0 {
  %1 = alloca i32, align 4
  %2 = alloca i32, align 4
  %3 = alloca i32, align 4
  store i32 0, i32* %1, align 4
  br label %4

4:                                                ; preds = %48, %0
  %5 = call i32 (i8*, ...) @__isoc99_scanf(i8* getelementptr inbounds ([3 x i8], [3 x i8]* @.str, i64 0, i64 0), i8* getelementptr inbounds ([128 x i8], [128 x i8]* @input, i64 0, i64 0))
  %6 = icmp ne i32 %5, -1
  br i1 %6, label %7, label %51

7:                                                ; preds = %4
  %8 = call i8* @strcpy(i8* getelementptr inbounds ([128 x i8], [128 x i8]* @tmp_input, i64 0, i64 0), i8* getelementptr inbounds ([128 x i8], [128 x i8]* @input, i64 0, i64 0)) #4
  %9 = call i64 @strlen(i8* getelementptr inbounds ([128 x i8], [128 x i8]* @input, i64 0, i64 0)) #5
  %10 = trunc i64 %9 to i32
  store i32 %10, i32* %2, align 4
  %11 = load i32, i32* %2, align 4
  call void @Match(i32 %11)
  store i32 0, i32* %3, align 4
  br label %12

12:                                               ; preds = %45, %7
  %13 = load i32, i32* %3, align 4
  %14 = load i32, i32* %2, align 4
  %15 = sub nsw i32 %14, 1
  %16 = icmp sle i32 %13, %15
  br i1 %16, label %17, label %48

17:                                               ; preds = %12
  %18 = load i32, i32* %3, align 4
  %19 = sext i32 %18 to i64
  %20 = getelementptr inbounds [128 x i8], [128 x i8]* @input, i64 0, i64 %19
  %21 = load i8, i8* %20, align 1
  %22 = sext i8 %21 to i32
  %23 = icmp eq i32 %22, 40
  br i1 %23, label %24, label %28

24:                                               ; preds = %17
  %25 = load i32, i32* %3, align 4
  %26 = sext i32 %25 to i64
  %27 = getelementptr inbounds [128 x i8], [128 x i8]* @input, i64 0, i64 %26
  store i8 36, i8* %27, align 1
  br label %44

28:                                               ; preds = %17
  %29 = load i32, i32* %3, align 4
  %30 = sext i32 %29 to i64
  %31 = getelementptr inbounds [128 x i8], [128 x i8]* @input, i64 0, i64 %30
  %32 = load i8, i8* %31, align 1
  %33 = sext i8 %32 to i32
  %34 = icmp eq i32 %33, 41
  br i1 %34, label %35, label %39

35:                                               ; preds = %28
  %36 = load i32, i32* %3, align 4
  %37 = sext i32 %36 to i64
  %38 = getelementptr inbounds [128 x i8], [128 x i8]* @input, i64 0, i64 %37
  store i8 63, i8* %38, align 1
  br label %43

39:                                               ; preds = %28
  %40 = load i32, i32* %3, align 4
  %41 = sext i32 %40 to i64
  %42 = getelementptr inbounds [128 x i8], [128 x i8]* @input, i64 0, i64 %41
  store i8 32, i8* %42, align 1
  br label %43

43:                                               ; preds = %39, %35
  br label %44

44:                                               ; preds = %43, %24
  br label %45

45:                                               ; preds = %44
  %46 = load i32, i32* %3, align 4
  %47 = add nsw i32 %46, 1
  store i32 %47, i32* %3, align 4
  br label %12

48:                                               ; preds = %12
  %49 = call i32 (i8*, ...) @printf(i8* getelementptr inbounds ([4 x i8], [4 x i8]* @.str.1, i64 0, i64 0), i8* getelementptr inbounds ([128 x i8], [128 x i8]* @tmp_input, i64 0, i64 0))
  %50 = call i32 (i8*, ...) @printf(i8* getelementptr inbounds ([4 x i8], [4 x i8]* @.str.1, i64 0, i64 0), i8* getelementptr inbounds ([128 x i8], [128 x i8]* @input, i64 0, i64 0))
  br label %4

51:                                               ; preds = %4
  ret i32 0
}

declare dso_local i32 @__isoc99_scanf(i8*, ...) #1

; Function Attrs: nounwind
declare dso_local i8* @strcpy(i8*, i8*) #2

; Function Attrs: nounwind readonly
declare dso_local i64 @strlen(i8*) #3

; Function Attrs: noinline nounwind uwtable
define dso_local void @Match(i32 %0) #0 {
  %2 = alloca i32, align 4
  %3 = alloca i32, align 4
  %4 = alloca i32, align 4
  %5 = alloca i32, align 4
  store i32 %0, i32* %2, align 4
  store i32 -1, i32* %3, align 4
  store i32 -1, i32* %4, align 4
  store i32 0, i32* %5, align 4
  br label %6

6:                                                ; preds = %39, %1
  %7 = load i32, i32* %5, align 4
  %8 = load i32, i32* %2, align 4
  %9 = sub nsw i32 %8, 1
  %10 = icmp sle i32 %7, %9
  br i1 %10, label %11, label %42

11:                                               ; preds = %6
  %12 = load i32, i32* %5, align 4
  %13 = sext i32 %12 to i64
  %14 = getelementptr inbounds [128 x i8], [128 x i8]* @input, i64 0, i64 %13
  %15 = load i8, i8* %14, align 1
  %16 = sext i8 %15 to i32
  %17 = icmp eq i32 %16, 40
  br i1 %17, label %18, label %20

18:                                               ; preds = %11
  %19 = load i32, i32* %5, align 4
  store i32 %19, i32* %3, align 4
  br label %39

20:                                               ; preds = %11
  %21 = load i32, i32* %5, align 4
  %22 = sext i32 %21 to i64
  %23 = getelementptr inbounds [128 x i8], [128 x i8]* @input, i64 0, i64 %22
  %24 = load i8, i8* %23, align 1
  %25 = sext i8 %24 to i32
  %26 = icmp eq i32 %25, 41
  br i1 %26, label %27, label %38

27:                                               ; preds = %20
  %28 = load i32, i32* %3, align 4
  %29 = icmp ne i32 %28, -1
  br i1 %29, label %30, label %37

30:                                               ; preds = %27
  %31 = load i32, i32* %3, align 4
  %32 = sext i32 %31 to i64
  %33 = getelementptr inbounds [128 x i8], [128 x i8]* @input, i64 0, i64 %32
  store i8 32, i8* %33, align 1
  %34 = load i32, i32* %5, align 4
  %35 = sext i32 %34 to i64
  %36 = getelementptr inbounds [128 x i8], [128 x i8]* @input, i64 0, i64 %35
  store i8 32, i8* %36, align 1
  store i32 -1, i32* %3, align 4
  store i32 -1, i32* %5, align 4
  br label %39

37:                                               ; preds = %27
  br label %38

38:                                               ; preds = %37, %20
  br label %39

39:                                               ; preds = %38, %30, %18
  %40 = load i32, i32* %5, align 4
  %41 = add nsw i32 %40, 1
  store i32 %41, i32* %5, align 4
  br label %6

42:                                               ; preds = %6
  ret void
}

declare dso_local i32 @printf(i8*, ...) #1


!llvm.module.flags = !{!0}
!llvm.ident = !{!1}

!0 = !{i32 1, !"wchar_size", i32 4}
!1 = !{!"clang version 10.0.0-4ubuntu1 "}
